(dp0
Vengine
p1
S'pdflatex'
p2
sVpackages
p3
c__builtin__
set
p4
((lp5
Vbm
p6
aVgraphicx
p7
aVdcolumn
p8
aVsubcaption
p9
atp10
Rp11
sVfiles_with_guttermarks
p12
g4
((lp13
V/Users/hstrey/PycharmProjects/Ornstein-Uhlenbeck-Data-Analysis/langevin.tex
p14
aS'langevin.tex'
p15
atp16
Rp17
sVsynctex
p18
I01
s.